target datalayout = "e-m:e-p270:32:32-p271:32:32-p272:64:64-i64:64-i128:128-f80:128-n8:16:32:64-S128"
target triple = "x86_64-pc-linux-gnu"

%struct.WOLFSSL = type <{ ptr, ptr, ptr, ptr, [48 x i8], [48 x i8], ptr, ptr, ptr, ptr, ptr, ptr, ptr, ptr, ptr, ptr, ptr, ptr, ptr, i32, [4 x i8], %struct.WOLFSSL_CIPHER, ptr, %struct.Ciphers, %struct.Ciphers, [8 x i8], %struct.Buffers, ptr, ptr, %struct.WOLFSSL_ALERT_HISTORY, %struct.WOLFSSL_ALERT, i32, i32, i32, i32, i32, i32, i32, i16, [2 x i8], i32, i8, %struct.RecordLayerHeader, %struct.MsgsReceived, %struct.ProtocolVersion, %struct.ProtocolVersion, %struct.CipherSpecs, [2 x i8], %struct.Keys, %struct.Options, ptr, i8, i8, i16, [10 x i16], i8, i8, i16, i16, [38 x i8], i32, i32, [4 x i8], ptr, i8, i8, [6 x i8], ptr, ptr, i16, i8, i8, i32, i8, [3 x i8], i32, %struct.OneTimeAuth, ptr }>
%struct.WOLFSSL_CIPHER = type { i8, i8, ptr }
%struct.Ciphers = type { ptr, ptr, ptr, ptr, i8, i8 }
%struct.Buffers = type { %struct.bufferStatic, %struct.bufferStatic, %struct.WOLFSSL_BUFFER_INFO, %struct.WOLFSSL_BUFFER_INFO, %struct.WOLFSSL_BUFFER_INFO, %struct.WOLFSSL_BUFFER_INFO, i32, i32, i8, i8, i8, i8, %struct.WOLFSSL_BUFFER_INFO, %struct.WOLFSSL_BUFFER_INFO, %struct.WOLFSSL_BUFFER_INFO, %struct.WOLFSSL_BUFFER_INFO, ptr, ptr, ptr, i8, i8, i32, i32, ptr, i32, [1 x ptr] }
%struct.bufferStatic = type { [5 x i8], ptr, i32, i32, i32, i8, i8 }
%struct.WOLFSSL_BUFFER_INFO = type { ptr, i32 }
%struct.WOLFSSL_ALERT_HISTORY = type { %struct.WOLFSSL_ALERT, %struct.WOLFSSL_ALERT }
%struct.WOLFSSL_ALERT = type { i32, i32 }
%struct.RecordLayerHeader = type { i8, i8, i8, [2 x i8] }
%struct.MsgsReceived = type { i32 }
%struct.ProtocolVersion = type { i8, i8 }
%struct.CipherSpecs = type { i16, i16, i16, i16, i8, i8, i8, i8, i8, i8, i8, i8 }
%struct.Keys = type { [64 x i8], [64 x i8], [32 x i8], [32 x i8], [16 x i8], [16 x i8], [8 x i8], [12 x i8], [12 x i8], i32, i32, i32, i32, i32, i32, i8, i8, i8, i8 }
%struct.Options = type { i64, i64, i8, i8, i8, i8, i8, i8, i8, i8, i8, i8, i8, i8, i8, i8, i8, i8, i8, i8, i8, i8, i8, i16, i16, i16, i16, i16, i8 }
%struct.OneTimeAuth = type { ptr, i8 }
%struct.Arrays = type { ptr, ptr, i32, i32, i32, [32 x i8], [32 x i8], [32 x i8], i8, [48 x i8], [48 x i8], i8 }

@kTlsClientStr = internal constant [5 x i8] c"CLNT\00", align 1
@kTlsClientFinStr = internal constant [16 x i8] c"client finished\00", align 16
@kTlsServerStr = internal constant [5 x i8] c"SRVR\00", align 1
@kTlsServerFinStr = internal constant [16 x i8] c"server finished\00", align 16

; Function Attrs: inlinehint nounwind uwtable
define internal void @ForceZero(ptr noundef %0, i32 noundef %1) #5 {
  %3 = alloca ptr, align 8
  %4 = alloca i32, align 4
  %5 = alloca ptr, align 8
  %6 = alloca ptr, align 8
  %7 = alloca i32, align 4
  store ptr %0, ptr %3, align 8, !tbaa !54
  store i32 %1, ptr %4, align 4, !tbaa !12
  call void @llvm.lifetime.start.p0(i64 8, ptr %5) #8
  %8 = load ptr, ptr %3, align 8, !tbaa !54
  store ptr %8, ptr %5, align 8, !tbaa !8
  call void @llvm.lifetime.start.p0(i64 8, ptr %6) #8
  call void @llvm.lifetime.start.p0(i64 4, ptr %7) #8
  %9 = load ptr, ptr %5, align 8, !tbaa !8
  %10 = ptrtoint ptr %9 to i64
  %11 = and i64 %10, 7
  %12 = sub i64 8, %11
  %13 = and i64 %12, 7
  %14 = trunc i64 %13 to i32
  store i32 %14, ptr %7, align 4, !tbaa !12
  %15 = load i32, ptr %4, align 4, !tbaa !12
  %16 = load i32, ptr %7, align 4, !tbaa !12
  %17 = icmp ult i32 %15, %16
  br i1 %17, label %18, label %20

18:                                               ; preds = %2
  %19 = load i32, ptr %4, align 4, !tbaa !12
  store i32 %19, ptr %7, align 4, !tbaa !12
  br label %20

20:                                               ; preds = %18, %2
  %21 = load i32, ptr %7, align 4, !tbaa !12
  %22 = load i32, ptr %4, align 4, !tbaa !12
  %23 = sub i32 %22, %21
  store i32 %23, ptr %4, align 4, !tbaa !12
  br label %24

24:                                               ; preds = %28, %20
  %25 = load i32, ptr %7, align 4, !tbaa !12
  %26 = add i32 %25, -1
  store i32 %26, ptr %7, align 4, !tbaa !12
  %27 = icmp ne i32 %25, 0
  br i1 %27, label %28, label %31

28:                                               ; preds = %24
  %29 = load ptr, ptr %5, align 8, !tbaa !8
  %30 = getelementptr inbounds nuw i8, ptr %29, i32 1
  store ptr %30, ptr %5, align 8, !tbaa !8
  store volatile i8 0, ptr %29, align 1, !tbaa !55
  br label %24, !llvm.loop !56

31:                                               ; preds = %24
  %32 = load ptr, ptr %5, align 8, !tbaa !8
  store ptr %32, ptr %6, align 8, !tbaa !58
  br label %33

33:                                               ; preds = %40, %31
  %34 = load i32, ptr %4, align 4, !tbaa !12
  %35 = zext i32 %34 to i64
  %36 = icmp uge i64 %35, 8
  br i1 %36, label %37, label %43

37:                                               ; preds = %33
  %38 = load ptr, ptr %6, align 8, !tbaa !58
  %39 = getelementptr inbounds nuw i64, ptr %38, i32 1
  store ptr %39, ptr %6, align 8, !tbaa !58
  store volatile i64 0, ptr %38, align 8, !tbaa !60
  br label %40

40:                                               ; preds = %37
  %41 = load i32, ptr %4, align 4, !tbaa !12
  %42 = sub i32 %41, 8
  store i32 %42, ptr %4, align 4, !tbaa !12
  br label %33, !llvm.loop !61

43:                                               ; preds = %33
  %44 = load ptr, ptr %6, align 8, !tbaa !58
  store ptr %44, ptr %5, align 8, !tbaa !8
  br label %45

45:                                               ; preds = %49, %43
  %46 = load i32, ptr %4, align 4, !tbaa !12
  %47 = add i32 %46, -1
  store i32 %47, ptr %4, align 4, !tbaa !12
  %48 = icmp ne i32 %46, 0
  br i1 %48, label %49, label %52

49:                                               ; preds = %45
  %50 = load ptr, ptr %5, align 8, !tbaa !8
  %51 = getelementptr inbounds nuw i8, ptr %50, i32 1
  store ptr %51, ptr %5, align 8, !tbaa !8
  store volatile i8 0, ptr %50, align 1, !tbaa !55
  br label %45, !llvm.loop !62

52:                                               ; preds = %45
  call void @llvm.lifetime.end.p0(i64 4, ptr %7) #8
  call void @llvm.lifetime.end.p0(i64 8, ptr %6) #8
  call void @llvm.lifetime.end.p0(i64 8, ptr %5) #8
  ret void
}

; Function Attrs: nounwind uwtable
define i32 @BuildTlsFinished(ptr noundef %0, ptr noundef %1, ptr noundef %2) #0 {
  %4 = alloca ptr, align 8
  %5 = alloca ptr, align 8
  %6 = alloca ptr, align 8
  %7 = alloca i32, align 4
  %8 = alloca ptr, align 8
  %9 = alloca i32, align 4
  %10 = alloca [48 x i8], align 16
  store ptr %0, ptr %4, align 8, !tbaa !3
  store ptr %1, ptr %5, align 8, !tbaa !49
  store ptr %2, ptr %6, align 8, !tbaa !8
  call void @llvm.lifetime.start.p0(i64 4, ptr %7) #8
  call void @llvm.lifetime.start.p0(i64 8, ptr %8) #8
  store ptr null, ptr %8, align 8, !tbaa !8
  call void @llvm.lifetime.start.p0(i64 4, ptr %9) #8
  store i32 48, ptr %9, align 4, !tbaa !12
  call void @llvm.lifetime.start.p0(i64 48, ptr %10) #8
  %11 = getelementptr inbounds [48 x i8], ptr %10, i64 0, i64 0
  call void @llvm.memset.p0.i64(ptr align 16 %11, i8 0, i64 48, i1 false)
  %12 = load ptr, ptr %4, align 8, !tbaa !3
  %13 = getelementptr inbounds [48 x i8], ptr %10, i64 0, i64 0
  %14 = call i32 @BuildTlsHandshakeHash(ptr noundef %12, ptr noundef %13, ptr noundef %9)
  store i32 %14, ptr %7, align 4, !tbaa !12
  %15 = load i32, ptr %7, align 4, !tbaa !12
  %16 = icmp eq i32 %15, 0
  br i1 %16, label %17, label %33

17:                                               ; preds = %3
  %18 = load ptr, ptr %6, align 8, !tbaa !8
  %19 = call i32 @strncmp(ptr noundef %18, ptr noundef @kTlsClientStr, i64 noundef 4) #9
  %20 = icmp eq i32 %19, 0
  br i1 %20, label %21, label %22

21:                                               ; preds = %17
  store ptr @kTlsClientFinStr, ptr %8, align 8, !tbaa !8
  br label %32

22:                                               ; preds = %17
  %23 = load ptr, ptr %6, align 8, !tbaa !8
  %24 = call i32 @strncmp(ptr noundef %23, ptr noundef @kTlsServerStr, i64 noundef 4) #9
  %25 = icmp eq i32 %24, 0
  br i1 %25, label %26, label %27

26:                                               ; preds = %22
  store ptr @kTlsServerFinStr, ptr %8, align 8, !tbaa !8
  br label %31

27:                                               ; preds = %22
  store i32 -173, ptr %7, align 4, !tbaa !12
  br label %28

28:                                               ; preds = %27
  br label %29

29:                                               ; preds = %28
  br label %30

30:                                               ; preds = %29
  br label %31

31:                                               ; preds = %30, %26
  br label %32

32:                                               ; preds = %31, %21
  br label %33

33:                                               ; preds = %32, %3
  %34 = load i32, ptr %7, align 4, !tbaa !12
  %35 = icmp eq i32 %34, 0
  br i1 %35, label %36, label %68

36:                                               ; preds = %33
  br label %37

37:                                               ; preds = %36
  br label %38

38:                                               ; preds = %37
  br label %39

39:                                               ; preds = %38
  %40 = load ptr, ptr %5, align 8, !tbaa !49
  %41 = load ptr, ptr %4, align 8, !tbaa !3
  %42 = getelementptr inbounds nuw %struct.WOLFSSL, ptr %41, i32 0, i32 3
  %43 = load ptr, ptr %42, align 8, !tbaa !51
  %44 = getelementptr inbounds nuw %struct.Arrays, ptr %43, i32 0, i32 10
  %45 = getelementptr inbounds [48 x i8], ptr %44, i64 0, i64 0
  %46 = load ptr, ptr %8, align 8, !tbaa !8
  %47 = getelementptr inbounds [48 x i8], ptr %10, i64 0, i64 0
  %48 = load i32, ptr %9, align 4, !tbaa !12
  %49 = load ptr, ptr %4, align 8, !tbaa !3
  %50 = call i32 @IsAtLeastTLSv1_2(ptr noundef %49)
  %51 = load ptr, ptr %4, align 8, !tbaa !3
  %52 = getelementptr inbounds nuw %struct.WOLFSSL, ptr %51, i32 0, i32 46
  %53 = getelementptr inbounds nuw %struct.CipherSpecs, ptr %52, i32 0, i32 6
  %54 = load i8, ptr %53, align 2, !tbaa !48
  %55 = zext i8 %54 to i32
  %56 = load ptr, ptr %4, align 8, !tbaa !3
  %57 = getelementptr inbounds nuw %struct.WOLFSSL, ptr %56, i32 0, i32 12
  %58 = load ptr, ptr %57, align 16, !tbaa !52
  %59 = load ptr, ptr %4, align 8, !tbaa !3
  %60 = getelementptr inbounds nuw %struct.WOLFSSL, ptr %59, i32 0, i32 75
  %61 = load i32, ptr %60, align 4, !tbaa !53
  %62 = call i32 @wc_PRF_TLS(ptr noundef %40, i32 noundef 12, ptr noundef %45, i32 noundef 48, ptr noundef %46, i32 noundef 15, ptr noundef %47, i32 noundef %48, i32 noundef %50, i32 noundef %55, ptr noundef %58, i32 noundef %61)
  store i32 %62, ptr %7, align 4, !tbaa !12
  br label %63

63:                                               ; preds = %39
  br label %64

64:                                               ; preds = %63
  br label %65

65:                                               ; preds = %64
  %66 = getelementptr inbounds [48 x i8], ptr %10, i64 0, i64 0
  %67 = load i32, ptr %9, align 4, !tbaa !12
  call void @ForceZero(ptr noundef %66, i32 noundef %67)
  br label %68

68:                                               ; preds = %65, %33
  %69 = load i32, ptr %7, align 4, !tbaa !12
  call void @llvm.lifetime.end.p0(i64 48, ptr %10) #8
  call void @llvm.lifetime.end.p0(i64 4, ptr %9) #8
  call void @llvm.lifetime.end.p0(i64 8, ptr %8) #8
  call void @llvm.lifetime.end.p0(i64 4, ptr %7) #8
  ret i32 %69
}