; Function Attrs: nounwind uwtable
define i32 @BuildTlsFinished(ptr noundef %0, ptr noundef %1, ptr noundef readonly captures(none) %2) local_unnamed_addr #0 {
  %4 = alloca i32, align 4
  %5 = alloca [48 x i8], align 16
  call void @llvm.lifetime.start.p0(i64 4, ptr nonnull %4) #17
  store i32 48, ptr %4, align 4, !tbaa !3
  call void @llvm.lifetime.start.p0(i64 48, ptr nonnull %5) #17
  call void @llvm.memset.p0.i64(ptr noundef nonnull align 16 dereferenceable(48) %5, i8 0, i64 48, i1 false)
  %6 = call i32 @BuildTlsHandshakeHash(ptr noundef %0, ptr noundef nonnull %5, ptr noundef nonnull %4)
  %7 = icmp eq i32 %6, 0
  br i1 %7, label %8, label %ForceZero.exit

8:                                                ; preds = %3
  %9 = call i32 @strncmp(ptr noundef nonnull dereferenceable(1) %2, ptr noundef nonnull dereferenceable(5) @kTlsClientStr, i64 noundef 4) #18
  %10 = icmp eq i32 %9, 0
  br i1 %10, label %select.unfold, label %11

11:                                               ; preds = %8
  %12 = call i32 @strncmp(ptr noundef nonnull dereferenceable(1) %2, ptr noundef nonnull dereferenceable(5) @kTlsServerStr, i64 noundef 4) #18
  %13 = icmp eq i32 %12, 0
  br i1 %13, label %select.unfold, label %ForceZero.exit

select.unfold:                                    ; preds = %11, %8
  %.0.ph = phi ptr [ @kTlsClientFinStr, %8 ], [ @kTlsServerFinStr, %11 ]
  %14 = getelementptr inbounds nuw i8, ptr %0, i64 24
  %15 = load ptr, ptr %14, align 8, !tbaa !45
  %16 = getelementptr inbounds nuw i8, ptr %15, i64 173
  %17 = load i32, ptr %4, align 4, !tbaa !3
  %18 = call i32 @IsAtLeastTLSv1_2(ptr noundef %0) #17
  %19 = getelementptr inbounds nuw i8, ptr %0, i64 724
  %20 = load i8, ptr %19, align 2, !tbaa !44
  %21 = zext i8 %20 to i32
  %22 = getelementptr inbounds nuw i8, ptr %0, i64 176
  %23 = load ptr, ptr %22, align 16, !tbaa !46
  %24 = getelementptr inbounds nuw i8, ptr %0, i64 1204
  %25 = load i32, ptr %24, align 4, !tbaa !47
  %26 = call i32 @wc_PRF_TLS(ptr noundef %1, i32 noundef 12, ptr noundef nonnull %16, i32 noundef 48, ptr noundef nonnull %.0.ph, i32 noundef 15, ptr noundef nonnull %5, i32 noundef %17, i32 noundef %18, i32 noundef %21, ptr noundef %23, i32 noundef %25) #17
  %27 = load i32, ptr %4, align 4, !tbaa !3
  %28 = icmp ugt i32 %27, 7
  br i1 %28, label %.lr.ph29.i, label %.preheader.i

.preheader.i:                                     ; preds = %.lr.ph29.i, %select.unfold
  %.018.lcssa.i = phi i32 [ %27, %select.unfold ], [ %30, %.lr.ph29.i ]
  %.015.lcssa.i = phi ptr [ %5, %select.unfold ], [ %29, %.lr.ph29.i ]
  %.not2232.i = icmp eq i32 %.018.lcssa.i, 0
  br i1 %.not2232.i, label %ForceZero.exit, label %.lr.ph35.i

.lr.ph29.i:                                       ; preds = %select.unfold, %.lr.ph29.i
  %.01528.i = phi ptr [ %29, %.lr.ph29.i ], [ %5, %select.unfold ]
  %.01827.i = phi i32 [ %30, %.lr.ph29.i ], [ %27, %select.unfold ]
  %29 = getelementptr inbounds nuw i8, ptr %.01528.i, i64 8
  store volatile i64 0, ptr %.01528.i, align 8, !tbaa !48
  %30 = add i32 %.01827.i, -8
  %31 = icmp ugt i32 %30, 7
  br i1 %31, label %.lr.ph29.i, label %.preheader.i, !llvm.loop !49

.lr.ph35.i:                                       ; preds = %.preheader.i, %.lr.ph35.i
  %.11734.i = phi ptr [ %33, %.lr.ph35.i ], [ %.015.lcssa.i, %.preheader.i ]
  %.11933.i = phi i32 [ %32, %.lr.ph35.i ], [ %.018.lcssa.i, %.preheader.i ]
  %32 = add i32 %.11933.i, -1
  %33 = getelementptr inbounds nuw i8, ptr %.11734.i, i64 1
  store volatile i8 0, ptr %.11734.i, align 1, !tbaa !51
  %.not22.i = icmp eq i32 %32, 0
  br i1 %.not22.i, label %ForceZero.exit, label %.lr.ph35.i, !llvm.loop !52

ForceZero.exit:                                   ; preds = %.lr.ph35.i, %.preheader.i, %3, %11
  %.1 = phi i32 [ %6, %3 ], [ -173, %11 ], [ %26, %.preheader.i ], [ %26, %.lr.ph35.i ]
  call void @llvm.lifetime.end.p0(i64 48, ptr nonnull %5) #17
  call void @llvm.lifetime.end.p0(i64 4, ptr nonnull %4) #17
  ret i32 %.1
}